target datalayout = "e-m:e-p270:32:32-p271:32:32-p272:64:64-i64:64-i128:128-f80:128-n8:16:32:64-S128"
target triple = "x86_64-pc-linux-gnu"

@.str = private unnamed_addr constant [34 x i8] c"../openssl/crypto/asn1/asn1_gen.c\00", align 1
@__func__.ASN1_generate_v3 = private unnamed_addr constant [17 x i8] c"ASN1_generate_v3\00", align 1

; Function Attrs: nounwind uwtable
define ptr @ASN1_generate_v3(ptr noundef %0, ptr noundef %1) #0 {
  %3 = alloca ptr, align 8
  %4 = alloca ptr, align 8
  %5 = alloca i32, align 4
  %6 = alloca ptr, align 8
  store ptr %0, ptr %3, align 8, !tbaa !3
  store ptr %1, ptr %4, align 8, !tbaa !10
  call void @llvm.lifetime.start.p0(i64 4, ptr %5) #7
  store i32 0, ptr %5, align 4, !tbaa !12
  call void @llvm.lifetime.start.p0(i64 8, ptr %6) #7
  %7 = load ptr, ptr %3, align 8, !tbaa !3
  %8 = load ptr, ptr %4, align 8, !tbaa !10
  %9 = call ptr @generate_v3(ptr noundef %7, ptr noundef %8, i32 noundef 0, ptr noundef %5)
  store ptr %9, ptr %6, align 8, !tbaa !14
  %10 = load i32, ptr %5, align 4, !tbaa !12
  %11 = icmp ne i32 %10, 0
  br i1 %11, label %12, label %14

12:                                               ; preds = %2
  call void @ERR_new()
  call void @ERR_set_debug(ptr noundef @.str, i32 noundef 95, ptr noundef @__func__.ASN1_generate_v3)
  %13 = load i32, ptr %5, align 4, !tbaa !12
  call void (i32, i32, ptr, ...) @ERR_set_error(i32 noundef 13, i32 noundef %13, ptr noundef null)
  br label %14

14:                                               ; preds = %12, %2
  %15 = load ptr, ptr %6, align 8, !tbaa !14
  call void @llvm.lifetime.end.p0(i64 8, ptr %6) #7
  call void @llvm.lifetime.end.p0(i64 4, ptr %5) #7
  ret ptr %15
}