; Function Attrs: nounwind uwtable
define ptr @ASN1_generate_v3(ptr noundef %0, ptr noundef %1) local_unnamed_addr #0 {
  %3 = alloca i32, align 4
  call void @llvm.lifetime.start.p0(i64 4, ptr nonnull %3) #7
  store i32 0, ptr %3, align 4, !tbaa !3
  %4 = call fastcc ptr @generate_v3(ptr noundef %0, ptr noundef %1, i32 noundef 0, ptr noundef %3)
  %5 = load i32, ptr %3, align 4, !tbaa !3
  %.not = icmp eq i32 %5, 0
  br i1 %.not, label %7, label %6

6:                                                ; preds = %2
  tail call void @ERR_new() #7
  tail call void @ERR_set_debug(ptr noundef nonnull @.str, i32 noundef 95, ptr noundef nonnull @__func__.ASN1_generate_v3) #7
  tail call void (i32, i32, ptr, ...) @ERR_set_error(i32 noundef 13, i32 noundef %5, ptr noundef null) #7
  br label %7

7:                                                ; preds = %6, %2
  call void @llvm.lifetime.end.p0(i64 4, ptr nonnull %3) #7
  ret ptr %4
}